target datalayout = "e-m:e-p270:32:32-p271:32:32-p272:64:64-i64:64-i128:128-f80:128-n8:16:32:64-S128"
target triple = "x86_64-pc-linux-gnu"

; Function Attrs: nounwind uwtable
define i32 @wc_DhGetNamedKeyParamSize(i32 noundef %0, ptr noundef %1, ptr noundef %2, ptr noundef %3) #0 {
  %5 = alloca i32, align 4
  %6 = alloca ptr, align 8
  %7 = alloca ptr, align 8
  %8 = alloca ptr, align 8
  %9 = alloca i32, align 4
  %10 = alloca i32, align 4
  %11 = alloca i32, align 4
  store i32 %0, ptr %5, align 4, !tbaa !9
  store ptr %1, ptr %6, align 8, !tbaa !29
  store ptr %2, ptr %7, align 8, !tbaa !29
  store ptr %3, ptr %8, align 8, !tbaa !29
  call void @llvm.lifetime.start.p0(i64 4, ptr %9) #9
  store i32 0, ptr %9, align 4, !tbaa !9
  call void @llvm.lifetime.start.p0(i64 4, ptr %10) #9
  store i32 0, ptr %10, align 4, !tbaa !9
  call void @llvm.lifetime.start.p0(i64 4, ptr %11) #9
  store i32 0, ptr %11, align 4, !tbaa !9
  %12 = load i32, ptr %5, align 4, !tbaa !9
  switch i32 %12, label %14 [
    i32 256, label %13
  ]

13:                                               ; preds = %4
  store i32 256, ptr %9, align 4, !tbaa !9
  store i32 1, ptr %10, align 4, !tbaa !9
  br label %15

14:                                               ; preds = %4
  br label %15

15:                                               ; preds = %14, %13
  %16 = load ptr, ptr %6, align 8, !tbaa !29
  %17 = icmp ne ptr %16, null
  br i1 %17, label %18, label %21

18:                                               ; preds = %15
  %19 = load i32, ptr %9, align 4, !tbaa !9
  %20 = load ptr, ptr %6, align 8, !tbaa !29
  store i32 %19, ptr %20, align 4, !tbaa !9
  br label %21

21:                                               ; preds = %18, %15
  %22 = load ptr, ptr %7, align 8, !tbaa !29
  %23 = icmp ne ptr %22, null
  br i1 %23, label %24, label %27

24:                                               ; preds = %21
  %25 = load i32, ptr %10, align 4, !tbaa !9
  %26 = load ptr, ptr %7, align 8, !tbaa !29
  store i32 %25, ptr %26, align 4, !tbaa !9
  br label %27

27:                                               ; preds = %24, %21
  %28 = load ptr, ptr %8, align 8, !tbaa !29
  %29 = icmp ne ptr %28, null
  br i1 %29, label %30, label %33

30:                                               ; preds = %27
  %31 = load i32, ptr %11, align 4, !tbaa !9
  %32 = load ptr, ptr %8, align 8, !tbaa !29
  store i32 %31, ptr %32, align 4, !tbaa !9
  br label %33

33:                                               ; preds = %30, %27
  call void @llvm.lifetime.end.p0(i64 4, ptr %11) #9
  call void @llvm.lifetime.end.p0(i64 4, ptr %10) #9
  call void @llvm.lifetime.end.p0(i64 4, ptr %9) #9
  ret i32 0
}