; Function Attrs: mustprogress nofree norecurse nosync nounwind willreturn memory(argmem: write) uwtable
define noundef i32 @wc_DhGetNamedKeyParamSize(i32 noundef %0, ptr noundef writeonly captures(address_is_null) %1, ptr noundef writeonly captures(address_is_null) %2, ptr noundef writeonly captures(address_is_null) %3) local_unnamed_addr #7 {
  %cond = icmp eq i32 %0, 256
  %spec.select = zext i1 %cond to i32
  %.not = icmp eq ptr %1, null
  br i1 %.not, label %6, label %5

5:                                                ; preds = %4
  %spec.select15 = select i1 %cond, i32 256, i32 0
  store i32 %spec.select15, ptr %1, align 4, !tbaa !21
  br label %6

6:                                                ; preds = %5, %4
  %.not13 = icmp eq ptr %2, null
  br i1 %.not13, label %8, label %7

7:                                                ; preds = %6
  store i32 %spec.select, ptr %2, align 4, !tbaa !21
  br label %8

8:                                                ; preds = %7, %6
  %.not14 = icmp eq ptr %3, null
  br i1 %.not14, label %10, label %9

9:                                                ; preds = %8
  store i32 0, ptr %3, align 4, !tbaa !21
  br label %10

10:                                               ; preds = %9, %8
  ret i32 0
}